; Function Attrs: mustprogress nofree norecurse nounwind willreturn memory(argmem: readwrite) uwtable
define hidden void @_mi_stat_adjust_increase(ptr noundef %0, i64 noundef %1) local_unnamed_addr #0 {
  %3 = icmp eq i64 %1, 0
  br i1 %3, label %mi_stat_adjust.exit, label %4

4:                                                ; preds = %2
  %5 = icmp uge ptr %0, @_mi_stats_main
  %6 = icmp ult ptr %0, getelementptr inbounds nuw (i8, ptr @_mi_stats_main, i64 704)
  %7 = select i1 %5, i1 %6, i1 false
  %8 = getelementptr inbounds nuw i8, ptr %0, i64 24
  br i1 %7, label %9, label %14, !prof !9

9:                                                ; preds = %4
  %10 = atomicrmw add ptr %8, i64 %1 monotonic, align 8
  %11 = atomicrmw add ptr %0, i64 %1 monotonic, align 8
  %12 = getelementptr inbounds nuw i8, ptr %0, i64 8
  %13 = atomicrmw add ptr %12, i64 %1 monotonic, align 8
  br label %mi_stat_adjust.exit

14:                                               ; preds = %4
  %15 = load i64, ptr %8, align 8, !tbaa !12
  %16 = add nsw i64 %15, %1
  store i64 %16, ptr %8, align 8, !tbaa !12
  %17 = load i64, ptr %0, align 8, !tbaa !15
  %18 = add nsw i64 %17, %1
  store i64 %18, ptr %0, align 8, !tbaa !15
  %19 = getelementptr inbounds nuw i8, ptr %0, i64 8
  %20 = load i64, ptr %19, align 8, !tbaa !16
  %21 = add nsw i64 %20, %1
  store i64 %21, ptr %19, align 8, !tbaa !16
  br label %mi_stat_adjust.exit

mi_stat_adjust.exit:                              ; preds = %2, %9, %14
  ret void
}